target datalayout = "e-m:e-p270:32:32-p271:32:32-p272:64:64-i64:64-i128:128-f80:128-n8:16:32:64-S128"
target triple = "x86_64-pc-linux-gnu"

%"class.icu_77::UnicodeString" = type { %"class.icu_77::Replaceable", %"union.icu_77::UnicodeString::StackBufferOrFields" }
%"class.icu_77::Replaceable" = type { %"class.icu_77::UObject" }
%"class.icu_77::UObject" = type { ptr }
%"union.icu_77::UnicodeString::StackBufferOrFields" = type { %struct.anon.0, [32 x i8] }
%struct.anon.0 = type { i16, i32, i32, ptr }
%"class.icu_77::SimpleDateFormat" = type { %"class.icu_77::DateFormat", %"class.icu_77::UnicodeString", %"class.icu_77::UnicodeString", %"class.icu_77::UnicodeString", %"class.icu_77::Locale", ptr, ptr, double, i8, i8, i8, i32, ptr, ptr, i8, ptr }
%"class.icu_77::DateFormat" = type { %"class.icu_77::Format", ptr, ptr, %"class.icu_77::EnumSet", i32 }
%"class.icu_77::Format" = type { %"class.icu_77::UObject", ptr, ptr }
%"class.icu_77::EnumSet" = type { i32 }
%"class.icu_77::Locale" = type <{ %"class.icu_77::UObject", [12 x i8], [6 x i8], [4 x i8], [2 x i8], i32, [4 x i8], ptr, [157 x i8], [3 x i8], ptr, i8, [7 x i8] }>
%struct.anon = type { i16, [27 x i16] }

@_ZTVN6icu_777UObjectE = available_externally unnamed_addr constant { [5 x ptr] } { [5 x ptr] [ptr null, ptr @_ZTIN6icu_777UObjectE, ptr @_ZN6icu_777UObjectD1Ev, ptr @_ZN6icu_777UObjectD0Ev, ptr @_ZNK6icu_777UObject17getDynamicClassIDEv] }, align 8

; Function Attrs: inlinehint mustprogress nounwind uwtable
define linkonce_odr void @_ZN6icu_777UObjectC2Ev(ptr noundef nonnull align 8 dereferenceable(8) %0) unnamed_addr #2 comdat align 2 {
  %2 = alloca ptr, align 8
  store ptr %0, ptr %2, align 8, !tbaa !339
  %3 = load ptr, ptr %2, align 8
  store ptr getelementptr inbounds inrange(-16, 24) ({ [5 x ptr] }, ptr @_ZTVN6icu_777UObjectE, i32 0, i32 0, i32 2), ptr %3, align 8, !tbaa !63
  ret void
}

; Function Attrs: inlinehint mustprogress nounwind uwtable
define linkonce_odr void @_ZN6icu_7711ReplaceableC2Ev(ptr noundef nonnull align 8 dereferenceable(8) %0) unnamed_addr #2 comdat align 2 {
  %2 = alloca ptr, align 8
  store ptr %0, ptr %2, align 8, !tbaa !337
  %3 = load ptr, ptr %2, align 8
  call void @_ZN6icu_777UObjectC2Ev(ptr noundef nonnull align 8 dereferenceable(8) %3) #12
  store ptr getelementptr inbounds inrange(-16, 88) ({ [13 x ptr] }, ptr @_ZTVN6icu_7711ReplaceableE, i32 0, i32 0, i32 2), ptr %3, align 8, !tbaa !63
  ret void
}

; Function Attrs: mustprogress uwtable
define void @_ZN6icu_7716SimpleDateFormat24initializeDefaultCenturyEv(ptr noundef nonnull align 8 dereferenceable(528) %0) #1 align 2 {
  %2 = alloca ptr, align 8
  store ptr %0, ptr %2, align 8, !tbaa !23
  %3 = load ptr, ptr %2, align 8
  %4 = getelementptr inbounds nuw %"class.icu_77::DateFormat", ptr %3, i32 0, i32 1
  %5 = load ptr, ptr %4, align 8, !tbaa !79
  %6 = icmp ne ptr %5, null
  br i1 %6, label %7, label %37

7:                                                ; preds = %1
  %8 = getelementptr inbounds nuw %"class.icu_77::DateFormat", ptr %3, i32 0, i32 1
  %9 = load ptr, ptr %8, align 8, !tbaa !79
  %10 = load ptr, ptr %9, align 8, !tbaa !63
  %11 = getelementptr inbounds ptr, ptr %10, i64 51
  %12 = load ptr, ptr %11, align 8
  %13 = call noundef signext i8 %12(ptr noundef nonnull align 8 dereferenceable(192) %9)
  %14 = getelementptr inbounds nuw %"class.icu_77::SimpleDateFormat", ptr %3, i32 0, i32 14
  store i8 %13, ptr %14, align 8, !tbaa !86
  %15 = getelementptr inbounds nuw %"class.icu_77::SimpleDateFormat", ptr %3, i32 0, i32 14
  %16 = load i8, ptr %15, align 8, !tbaa !86
  %17 = icmp ne i8 %16, 0
  br i1 %17, label %18, label %33

18:                                               ; preds = %7
  %19 = getelementptr inbounds nuw %"class.icu_77::DateFormat", ptr %3, i32 0, i32 1
  %20 = load ptr, ptr %19, align 8, !tbaa !79
  %21 = load ptr, ptr %20, align 8, !tbaa !63
  %22 = getelementptr inbounds ptr, ptr %21, i64 52
  %23 = load ptr, ptr %22, align 8
  %24 = call noundef double %23(ptr noundef nonnull align 8 dereferenceable(192) %20)
  %25 = getelementptr inbounds nuw %"class.icu_77::SimpleDateFormat", ptr %3, i32 0, i32 7
  store double %24, ptr %25, align 8, !tbaa !87
  %26 = getelementptr inbounds nuw %"class.icu_77::DateFormat", ptr %3, i32 0, i32 1
  %27 = load ptr, ptr %26, align 8, !tbaa !79
  %28 = load ptr, ptr %27, align 8, !tbaa !63
  %29 = getelementptr inbounds ptr, ptr %28, i64 53
  %30 = load ptr, ptr %29, align 8
  %31 = call noundef i32 %30(ptr noundef nonnull align 8 dereferenceable(192) %27)
  %32 = getelementptr inbounds nuw %"class.icu_77::SimpleDateFormat", ptr %3, i32 0, i32 11
  store i32 %31, ptr %32, align 4, !tbaa !88
  br label %36

33:                                               ; preds = %7
  %34 = getelementptr inbounds nuw %"class.icu_77::SimpleDateFormat", ptr %3, i32 0, i32 7
  store double 0x10000000000000, ptr %34, align 8, !tbaa !87
  %35 = getelementptr inbounds nuw %"class.icu_77::SimpleDateFormat", ptr %3, i32 0, i32 11
  store i32 -1, ptr %35, align 4, !tbaa !88
  br label %36

36:                                               ; preds = %33, %18
  br label %37

37:                                               ; preds = %36, %1
  ret void
}

; Function Attrs: mustprogress uwtable
define void @_ZN6icu_7716SimpleDateFormat27initializeBooleanAttributesEv(ptr noundef nonnull align 8 dereferenceable(528) %0) #1 align 2 {
  %2 = alloca ptr, align 8
  %3 = alloca i32, align 4
  store ptr %0, ptr %2, align 8, !tbaa !23
  %4 = load ptr, ptr %2, align 8
  call void @llvm.lifetime.start.p0(i64 4, ptr %3) #12
  store i32 0, ptr %3, align 4, !tbaa !15
  %5 = load ptr, ptr %4, align 8, !tbaa !63
  %6 = getelementptr inbounds ptr, ptr %5, i64 27
  %7 = load ptr, ptr %6, align 8
  %8 = call noundef nonnull align 8 dereferenceable(48) ptr %7(ptr noundef nonnull align 8 dereferenceable(48) %4, i32 noundef 0, i8 noundef signext 1, ptr noundef nonnull align 4 dereferenceable(4) %3)
  %9 = load ptr, ptr %4, align 8, !tbaa !63
  %10 = getelementptr inbounds ptr, ptr %9, i64 27
  %11 = load ptr, ptr %10, align 8
  %12 = call noundef nonnull align 8 dereferenceable(48) ptr %11(ptr noundef nonnull align 8 dereferenceable(48) %4, i32 noundef 1, i8 noundef signext 1, ptr noundef nonnull align 4 dereferenceable(4) %3)
  %13 = load ptr, ptr %4, align 8, !tbaa !63
  %14 = getelementptr inbounds ptr, ptr %13, i64 27
  %15 = load ptr, ptr %14, align 8
  %16 = call noundef nonnull align 8 dereferenceable(48) ptr %15(ptr noundef nonnull align 8 dereferenceable(48) %4, i32 noundef 2, i8 noundef signext 1, ptr noundef nonnull align 4 dereferenceable(4) %3)
  %17 = load ptr, ptr %4, align 8, !tbaa !63
  %18 = getelementptr inbounds ptr, ptr %17, i64 27
  %19 = load ptr, ptr %18, align 8
  %20 = call noundef nonnull align 8 dereferenceable(48) ptr %19(ptr noundef nonnull align 8 dereferenceable(48) %4, i32 noundef 3, i8 noundef signext 1, ptr noundef nonnull align 4 dereferenceable(4) %3)
  call void @llvm.lifetime.end.p0(i64 4, ptr %3) #12
  ret void
}

; Function Attrs: inlinehint mustprogress uwtable
define linkonce_odr void @_ZN6icu_7713UnicodeStringC2Ev(ptr noundef nonnull align 8 dereferenceable(64) %0) unnamed_addr #3 comdat align 2 {
  %2 = alloca ptr, align 8
  store ptr %0, ptr %2, align 8, !tbaa !72
  %3 = load ptr, ptr %2, align 8
  call void @_ZN6icu_7711ReplaceableC2Ev(ptr noundef nonnull align 8 dereferenceable(8) %3)
  store ptr getelementptr inbounds inrange(-16, 88) ({ [13 x ptr] }, ptr @_ZTVN6icu_7713UnicodeStringE, i32 0, i32 0, i32 2), ptr %3, align 8, !tbaa !63
  %4 = getelementptr inbounds nuw %"class.icu_77::UnicodeString", ptr %3, i32 0, i32 1
  %5 = getelementptr inbounds nuw %struct.anon, ptr %4, i32 0, i32 0
  store i16 2, ptr %5, align 8, !tbaa !74
  ret void
}

; Function Attrs: mustprogress uwtable
define void @_ZN6icu_7716SimpleDateFormatC2ER10UErrorCode(ptr noundef nonnull align 8 dereferenceable(528) %0, ptr noundef nonnull align 4 dereferenceable(4) %1) unnamed_addr #1 align 2 personality ptr @__gxx_personality_v0 {
  %3 = alloca ptr, align 8
  %4 = alloca ptr, align 8
  %5 = alloca ptr, align 8
  %6 = alloca i32, align 4
  store ptr %0, ptr %3, align 8, !tbaa !23
  store ptr %1, ptr %4, align 8, !tbaa !22
  %7 = load ptr, ptr %3, align 8
  call void @_ZN6icu_7710DateFormatC2Ev(ptr noundef nonnull align 8 dereferenceable(48) %7)
  store ptr getelementptr inbounds inrange(-16, 320) ({ [42 x ptr] }, ptr @_ZTVN6icu_7716SimpleDateFormatE, i32 0, i32 0, i32 2), ptr %7, align 8, !tbaa !63
  %8 = getelementptr inbounds nuw %"class.icu_77::SimpleDateFormat", ptr %7, i32 0, i32 1
  invoke void @_ZN6icu_7713UnicodeStringC2Ev(ptr noundef nonnull align 8 dereferenceable(64) %8)
          to label %9 unwind label %28

9:                                                ; preds = %2
  %10 = getelementptr inbounds nuw %"class.icu_77::SimpleDateFormat", ptr %7, i32 0, i32 2
  invoke void @_ZN6icu_7713UnicodeStringC2Ev(ptr noundef nonnull align 8 dereferenceable(64) %10)
          to label %11 unwind label %32

11:                                               ; preds = %9
  %12 = getelementptr inbounds nuw %"class.icu_77::SimpleDateFormat", ptr %7, i32 0, i32 3
  invoke void @_ZN6icu_7713UnicodeStringC2Ev(ptr noundef nonnull align 8 dereferenceable(64) %12)
          to label %13 unwind label %36

13:                                               ; preds = %11
  %14 = getelementptr inbounds nuw %"class.icu_77::SimpleDateFormat", ptr %7, i32 0, i32 4
  %15 = invoke noundef nonnull align 8 dereferenceable(217) ptr @_ZN6icu_776Locale10getDefaultEv()
          to label %16 unwind label %40

16:                                               ; preds = %13
  invoke void @_ZN6icu_776LocaleC1ERKS0_(ptr noundef nonnull align 8 dereferenceable(217) %14, ptr noundef nonnull align 8 dereferenceable(217) %15)
          to label %17 unwind label %40

17:                                               ; preds = %16
  %18 = getelementptr inbounds nuw %"class.icu_77::SimpleDateFormat", ptr %7, i32 0, i32 5
  store ptr null, ptr %18, align 8, !tbaa !65
  %19 = getelementptr inbounds nuw %"class.icu_77::SimpleDateFormat", ptr %7, i32 0, i32 6
  store ptr null, ptr %19, align 8, !tbaa !66
  %20 = getelementptr inbounds nuw %"class.icu_77::SimpleDateFormat", ptr %7, i32 0, i32 12
  store ptr null, ptr %20, align 8, !tbaa !35
  %21 = getelementptr inbounds nuw %"class.icu_77::SimpleDateFormat", ptr %7, i32 0, i32 13
  store ptr null, ptr %21, align 8, !tbaa !67
  %22 = getelementptr inbounds nuw %"class.icu_77::SimpleDateFormat", ptr %7, i32 0, i32 15
  store ptr null, ptr %22, align 8, !tbaa !68
  invoke void @_ZN6icu_7716SimpleDateFormat27initializeBooleanAttributesEv(ptr noundef nonnull align 8 dereferenceable(528) %7)
          to label %23 unwind label %44

23:                                               ; preds = %17
  %24 = getelementptr inbounds nuw %"class.icu_77::SimpleDateFormat", ptr %7, i32 0, i32 4
  %25 = load ptr, ptr %4, align 8, !tbaa !22
  invoke void @_ZN6icu_7716SimpleDateFormat9constructENS_10DateFormat6EStyleES2_RKNS_6LocaleER10UErrorCode(ptr noundef nonnull align 8 dereferenceable(528) %7, i32 noundef 3, i32 noundef 7, ptr noundef nonnull align 8 dereferenceable(217) %24, ptr noundef nonnull align 4 dereferenceable(4) %25)
          to label %26 unwind label %44

26:                                               ; preds = %23
  invoke void @_ZN6icu_7716SimpleDateFormat24initializeDefaultCenturyEv(ptr noundef nonnull align 8 dereferenceable(528) %7)
          to label %27 unwind label %44

27:                                               ; preds = %26
  ret void

28:                                               ; preds = %2
  %29 = landingpad { ptr, i32 }
          cleanup
  %30 = extractvalue { ptr, i32 } %29, 0
  store ptr %30, ptr %5, align 8
  %31 = extractvalue { ptr, i32 } %29, 1
  store i32 %31, ptr %6, align 4
  br label %51

32:                                               ; preds = %9
  %33 = landingpad { ptr, i32 }
          cleanup
  %34 = extractvalue { ptr, i32 } %33, 0
  store ptr %34, ptr %5, align 8
  %35 = extractvalue { ptr, i32 } %33, 1
  store i32 %35, ptr %6, align 4
  br label %50

36:                                               ; preds = %11
  %37 = landingpad { ptr, i32 }
          cleanup
  %38 = extractvalue { ptr, i32 } %37, 0
  store ptr %38, ptr %5, align 8
  %39 = extractvalue { ptr, i32 } %37, 1
  store i32 %39, ptr %6, align 4
  br label %49

40:                                               ; preds = %16, %13
  %41 = landingpad { ptr, i32 }
          cleanup
  %42 = extractvalue { ptr, i32 } %41, 0
  store ptr %42, ptr %5, align 8
  %43 = extractvalue { ptr, i32 } %41, 1
  store i32 %43, ptr %6, align 4
  br label %48

44:                                               ; preds = %26, %23, %17
  %45 = landingpad { ptr, i32 }
          cleanup
  %46 = extractvalue { ptr, i32 } %45, 0
  store ptr %46, ptr %5, align 8
  %47 = extractvalue { ptr, i32 } %45, 1
  store i32 %47, ptr %6, align 4
  call void @_ZN6icu_776LocaleD1Ev(ptr noundef nonnull align 8 dereferenceable(217) %14) #12
  br label %48

48:                                               ; preds = %44, %40
  call void @_ZN6icu_7713UnicodeStringD1Ev(ptr noundef nonnull align 8 dereferenceable(64) %12) #12
  br label %49

49:                                               ; preds = %48, %36
  call void @_ZN6icu_7713UnicodeStringD1Ev(ptr noundef nonnull align 8 dereferenceable(64) %10) #12
  br label %50

50:                                               ; preds = %49, %32
  call void @_ZN6icu_7713UnicodeStringD1Ev(ptr noundef nonnull align 8 dereferenceable(64) %8) #12
  br label %51

51:                                               ; preds = %50, %28
  call void @_ZN6icu_7710DateFormatD2Ev(ptr noundef nonnull align 8 dereferenceable(48) %7) #12
  br label %52

52:                                               ; preds = %51
  %53 = load ptr, ptr %5, align 8
  %54 = load i32, ptr %6, align 4
  %55 = insertvalue { ptr, i32 } poison, ptr %53, 0
  %56 = insertvalue { ptr, i32 } %55, i32 %54, 1
  resume { ptr, i32 } %56
}