; Function Attrs: mustprogress uwtable
define void @_ZN6icu_7716SimpleDateFormatC2ER10UErrorCode(ptr noundef nonnull align 8 dereferenceable(528) %0, ptr noundef nonnull align 4 dereferenceable(4) %1) unnamed_addr #1 align 2 personality ptr @__gxx_personality_v0 {
  %3 = alloca i32, align 4
  tail call void @_ZN6icu_7710DateFormatC2Ev(ptr noundef nonnull align 8 dereferenceable(48) %0)
  store ptr getelementptr inbounds nuw inrange(-16, 320) (i8, ptr @_ZTVN6icu_7716SimpleDateFormatE, i64 16), ptr %0, align 8, !tbaa !44
  %4 = getelementptr inbounds nuw i8, ptr %0, i64 48
  store ptr getelementptr inbounds nuw inrange(-16, 88) (i8, ptr @_ZTVN6icu_7713UnicodeStringE, i64 16), ptr %4, align 8, !tbaa !44
  %5 = getelementptr inbounds nuw i8, ptr %0, i64 56
  store i16 2, ptr %5, align 8, !tbaa !51
  %6 = getelementptr inbounds nuw i8, ptr %0, i64 112
  store ptr getelementptr inbounds nuw inrange(-16, 88) (i8, ptr @_ZTVN6icu_7713UnicodeStringE, i64 16), ptr %6, align 8, !tbaa !44
  %7 = getelementptr inbounds nuw i8, ptr %0, i64 120
  store i16 2, ptr %7, align 8, !tbaa !51
  %8 = getelementptr inbounds nuw i8, ptr %0, i64 176
  store ptr getelementptr inbounds nuw inrange(-16, 88) (i8, ptr @_ZTVN6icu_7713UnicodeStringE, i64 16), ptr %8, align 8, !tbaa !44
  %9 = getelementptr inbounds nuw i8, ptr %0, i64 184
  store i16 2, ptr %9, align 8, !tbaa !51
  %10 = getelementptr inbounds nuw i8, ptr %0, i64 240
  %11 = invoke noundef nonnull align 8 dereferenceable(217) ptr @_ZN6icu_776Locale10getDefaultEv()
          to label %12 unwind label %58

12:                                               ; preds = %2
  invoke void @_ZN6icu_776LocaleC1ERKS0_(ptr noundef nonnull align 8 dereferenceable(217) %10, ptr noundef nonnull align 8 dereferenceable(217) %11)
          to label %13 unwind label %58

13:                                               ; preds = %12
  %14 = getelementptr inbounds nuw i8, ptr %0, i64 464
  %15 = getelementptr inbounds nuw i8, ptr %0, i64 496
  %16 = getelementptr inbounds nuw i8, ptr %0, i64 520
  store ptr null, ptr %16, align 8, !tbaa !50
  tail call void @llvm.memset.p0.i64(ptr noundef nonnull align 8 dereferenceable(16) %14, i8 0, i64 16, i1 false)
  tail call void @llvm.memset.p0.i64(ptr noundef nonnull align 8 dereferenceable(16) %15, i8 0, i64 16, i1 false)
  call void @llvm.lifetime.start.p0(i64 4, ptr nonnull %3) #23
  store i32 0, ptr %3, align 4, !tbaa !13
  %17 = load ptr, ptr %0, align 8, !tbaa !44
  %18 = getelementptr inbounds nuw i8, ptr %17, i64 216
  %19 = load ptr, ptr %18, align 8
  %20 = invoke noundef nonnull align 8 dereferenceable(48) ptr %19(ptr noundef nonnull align 8 dereferenceable(528) %0, i32 noundef 0, i8 noundef signext 1, ptr noundef nonnull align 4 dereferenceable(4) %3)
          to label %.noexc unwind label %60

.noexc:                                           ; preds = %13
  %21 = load ptr, ptr %0, align 8, !tbaa !44
  %22 = getelementptr inbounds nuw i8, ptr %21, i64 216
  %23 = load ptr, ptr %22, align 8
  %24 = invoke noundef nonnull align 8 dereferenceable(48) ptr %23(ptr noundef nonnull align 8 dereferenceable(528) %0, i32 noundef 1, i8 noundef signext 1, ptr noundef nonnull align 4 dereferenceable(4) %3)
          to label %.noexc11 unwind label %60

.noexc11:                                         ; preds = %.noexc
  %25 = load ptr, ptr %0, align 8, !tbaa !44
  %26 = getelementptr inbounds nuw i8, ptr %25, i64 216
  %27 = load ptr, ptr %26, align 8
  %28 = invoke noundef nonnull align 8 dereferenceable(48) ptr %27(ptr noundef nonnull align 8 dereferenceable(528) %0, i32 noundef 2, i8 noundef signext 1, ptr noundef nonnull align 4 dereferenceable(4) %3)
          to label %.noexc12 unwind label %60

.noexc12:                                         ; preds = %.noexc11
  %29 = load ptr, ptr %0, align 8, !tbaa !44
  %30 = getelementptr inbounds nuw i8, ptr %29, i64 216
  %31 = load ptr, ptr %30, align 8
  %32 = invoke noundef nonnull align 8 dereferenceable(48) ptr %31(ptr noundef nonnull align 8 dereferenceable(528) %0, i32 noundef 3, i8 noundef signext 1, ptr noundef nonnull align 4 dereferenceable(4) %3)
          to label %33 unwind label %60

33:                                               ; preds = %.noexc12
  call void @llvm.lifetime.end.p0(i64 4, ptr nonnull %3) #23
  invoke void @_ZN6icu_7716SimpleDateFormat9constructENS_10DateFormat6EStyleES2_RKNS_6LocaleER10UErrorCode(ptr noundef nonnull align 8 dereferenceable(528) %0, i32 noundef 3, i32 noundef 7, ptr noundef nonnull align 8 dereferenceable(217) %10, ptr noundef nonnull align 4 dereferenceable(4) %1)
          to label %34 unwind label %60

34:                                               ; preds = %33
  %35 = getelementptr inbounds nuw i8, ptr %0, i64 24
  %36 = load ptr, ptr %35, align 8, !tbaa !52
  %.not.i = icmp eq ptr %36, null
  br i1 %.not.i, label %_ZN6icu_7716SimpleDateFormat24initializeDefaultCenturyEv.exit, label %37

37:                                               ; preds = %34
  %38 = load ptr, ptr %36, align 8, !tbaa !44
  %39 = getelementptr inbounds nuw i8, ptr %38, i64 408
  %40 = load ptr, ptr %39, align 8
  %41 = invoke noundef signext i8 %40(ptr noundef nonnull align 8 dereferenceable(192) %36)
          to label %.noexc14 unwind label %60

.noexc14:                                         ; preds = %37
  %42 = getelementptr inbounds nuw i8, ptr %0, i64 512
  store i8 %41, ptr %42, align 8, !tbaa !53
  %.not1.i = icmp eq i8 %41, 0
  br i1 %.not1.i, label %55, label %43

43:                                               ; preds = %.noexc14
  %44 = load ptr, ptr %35, align 8, !tbaa !52
  %45 = load ptr, ptr %44, align 8, !tbaa !44
  %46 = getelementptr inbounds nuw i8, ptr %45, i64 416
  %47 = load ptr, ptr %46, align 8
  %48 = invoke noundef double %47(ptr noundef nonnull align 8 dereferenceable(192) %44)
          to label %.noexc15 unwind label %60

.noexc15:                                         ; preds = %43
  %49 = getelementptr inbounds nuw i8, ptr %0, i64 480
  store double %48, ptr %49, align 8, !tbaa !54
  %50 = load ptr, ptr %35, align 8, !tbaa !52
  %51 = load ptr, ptr %50, align 8, !tbaa !44
  %52 = getelementptr inbounds nuw i8, ptr %51, i64 424
  %53 = load ptr, ptr %52, align 8
  %54 = invoke noundef i32 %53(ptr noundef nonnull align 8 dereferenceable(192) %50)
          to label %.sink.split.i unwind label %60

55:                                               ; preds = %.noexc14
  %56 = getelementptr inbounds nuw i8, ptr %0, i64 480
  store double 0x10000000000000, ptr %56, align 8, !tbaa !54
  br label %.sink.split.i

.sink.split.i:                                    ; preds = %.noexc15, %55
  %.sink.i = phi i32 [ -1, %55 ], [ %54, %.noexc15 ]
  %57 = getelementptr inbounds nuw i8, ptr %0, i64 492
  store i32 %.sink.i, ptr %57, align 4, !tbaa !55
  br label %_ZN6icu_7716SimpleDateFormat24initializeDefaultCenturyEv.exit

_ZN6icu_7716SimpleDateFormat24initializeDefaultCenturyEv.exit: ; preds = %.sink.split.i, %34
  ret void

58:                                               ; preds = %12, %2
  %59 = landingpad { ptr, i32 }
          cleanup
  br label %62

60:                                               ; preds = %.noexc15, %43, %37, %.noexc12, %.noexc11, %.noexc, %13, %33
  %61 = landingpad { ptr, i32 }
          cleanup
  call void @_ZN6icu_776LocaleD1Ev(ptr noundef nonnull align 8 dereferenceable(217) %10) #23
  br label %62

62:                                               ; preds = %60, %58
  %.pn = phi { ptr, i32 } [ %61, %60 ], [ %59, %58 ]
  call void @_ZN6icu_7713UnicodeStringD1Ev(ptr noundef nonnull align 8 dereferenceable(64) %8) #23
  call void @_ZN6icu_7713UnicodeStringD1Ev(ptr noundef nonnull align 8 dereferenceable(64) %6) #23
  call void @_ZN6icu_7713UnicodeStringD1Ev(ptr noundef nonnull align 8 dereferenceable(64) %4) #23
  call void @_ZN6icu_7710DateFormatD2Ev(ptr noundef nonnull align 8 dereferenceable(48) %0) #23
  resume { ptr, i32 } %.pn
}